ccopy_reg
_reconstructor
p0
(c__main__
Container
p1
c__builtin__
object
p2
Ntp3
Rp4
(dp5
S'm_mat'
p6
cnumpy.core.multiarray
_reconstruct
p7
(cnumpy
ndarray
p8
(I0
tp9
S'b'
p10
tp11
Rp12
(I1
(I3
I3
tp13
cnumpy
dtype
p14
(S'f8'
p15
I0
I1
tp16
Rp17
(I4
S'<'
p18
NNNI-1
I-1
I0
Ntp19
bI00
S'\xf0\xc6\x16l\x18\x9cA@2W\xc6\xff\xa2\x8fE\xc0\xa0\x7fQ\xae\xba\xcc,@\x14G\xe4w\xe7\xda;@(f\xe4J\xd3u@@\xdcs#\xefQ\xb3\x10\xc0\x8c\xa3\xacz\xfd\xf2\n@\xde\xb9\xb1E\x19\x1e3@\xe2\xd0Y\xdex\xfdW\xc0'
p20
tp21
bsS'elastic'
p22
(i__main__
Elastic
p23
(dp24
S'NormalAxis'
p25
(lp26
F0.904534033733291
aF0.408248290463863
aF0.123091490979333
asS'PrimaryAxis'
p27
(lp28
F-0.301511344577764
aF0.816496580927726
aF-0.492365963917331
asS'ElasticValue'
p29
(F197000.0
F144000.0
F197000.0
F144000.0
F144000.0
F197000.0
F90000.0
F90000.0
F90000.0
tp30
sS'uvw'
p31
(lp32
I3
aI-1
aI-1
asS'hkl'
p33
(lp34
I1
aI2
aI1
asS'eType'
p35
S'orthotropic'
p36
sS'ElasticRigidValue'
p37
(F20000000.0
F0.3
tp38
sS'AdditionalRotationAngle'
p39
F0.0
sbsb.