ccopy_reg
_reconstructor
p0
(c__main__
Container
p1
c__builtin__
object
p2
Ntp3
Rp4
(dp5
S'm_mat'
p6
cnumpy.core.multiarray
_reconstruct
p7
(cnumpy
ndarray
p8
(I0
tp9
S'b'
p10
tp11
Rp12
(I1
(I3
I3
tp13
cnumpy
dtype
p14
(S'f8'
p15
I0
I1
tp16
Rp17
(I4
S'<'
p18
NNNI-1
I-1
I0
Ntp19
bI00
S'\x10$>-\x89\x88?@\xe5=\xb4\x85\xc3\x14C\xc0\x00\xf8\xb8\x85\x06&\xd4\xbf\xbd\x80\xd3`%\xf2?@=\xdb\x07\x03\x10\xf7A@\x80j\xa9\x14|\xfa\xb4\xbf\x00\x82\xe6\xa0\xefD\x98\xbf\xc0&\xd7e\x0em\xc0\xbfA\xcf\t\x19\xf3>L\xc0'
p20
tp21
bsS'elastic'
p22
(i__main__
Elastic
p23
(dp24
S'NormalAxis'
p25
(lp26
F1.0
aF0.0
aF0.0
asS'PrimaryAxis'
p27
(lp28
F0.0
aF1.0
aF0.0
asS'ElasticValue'
p29
(F197000.0
F144000.0
F197000.0
F144000.0
F144000.0
F197000.0
F90000.0
F90000.0
F90000.0
tp30
sS'uvw'
p31
(lp32
I1
aI0
aI0
asS'hkl'
p33
(lp34
I0
aI1
aI0
asS'eType'
p35
S'orthotropic'
p36
sS'ElasticRigidValue'
p37
(F20000000.0
F0.3
tp38
sS'AdditionalRotationAngle'
p39
F0.0
sbsb.