ccopy_reg
_reconstructor
p0
(c__main__
Container
p1
c__builtin__
object
p2
Ntp3
Rp4
(dp5
S'm_mat'
p6
cnumpy.core.multiarray
_reconstruct
p7
(cnumpy
ndarray
p8
(I0
tp9
S'b'
p10
tp11
Rp12
(I1
(I3
I3
tp13
cnumpy
dtype
p14
(S'f8'
p15
I0
I1
tp16
Rp17
(I4
S'<'
p18
NNNI-1
I-1
I0
Ntp19
bI00
S'$\xca\xd7\x08#\xc9>@\xb0\xc9\x05\xdf\xab\x9bG\xc0\x80\xc2/\x99\xa3\xb9*\xc0\xb0e\x08\xb8\x85g?@D\xb4]\x8c\xf1\xbeF@\x9d"#\x18A&1@\xc0\xfd\xab\x97\xd4\xd1\xd2\xbf\xd8\xcd#\xc9\x1d\x04J\xc0,\x9e{|\xfa\\X\xc0'
p20
tp21
bsS'elastic'
p22
(i__main__
Elastic
p23
(dp24
S'NormalAxis'
p25
(lp26
F0.577350269189626
aF0.707106781186547
aF-0.408248290463863
asS'PrimaryAxis'
p27
(lp28
F-0.577350269189626
aF0.707106781186547
aF0.408248290463863
asS'ElasticValue'
p29
(F197000.0
F144000.0
F197000.0
F144000.0
F144000.0
F197000.0
F90000.0
F90000.0
F90000.0
tp30
sS'uvw'
p31
(lp32
I1
aI-1
aI1
asS'hkl'
p33
(lp34
I1
aI1
aI0
asS'eType'
p35
S'orthotropic'
p36
sS'ElasticRigidValue'
p37
(F20000000.0
F0.3
tp38
sS'AdditionalRotationAngle'
p39
F0.0
sbsb.